; Function Attrs: mustprogress nounwind uwtable
define dso_local void @_ZN23btConvexConvexAlgorithmD2Ev(ptr noundef nonnull align 8 dereferenceable(116) initializes((0, 8)) %0) unnamed_addr #2 align 2 personality ptr @__gxx_personality_v0 {
  store ptr getelementptr inbounds nuw inrange(-16, 40) (i8, ptr @_ZTV23btConvexConvexAlgorithm, i64 16), ptr %0, align 8, !tbaa !9
  %2 = getelementptr inbounds nuw i8, ptr %0, i64 88
  %3 = load i8, ptr %2, align 8, !tbaa !31, !range !36, !noundef !37
  %4 = trunc nuw i8 %3 to i1
  br i1 %4, label %5, label %14

5:                                                ; preds = %1
  %6 = getelementptr inbounds nuw i8, ptr %0, i64 96
  %7 = load ptr, ptr %6, align 8, !tbaa !32
  %.not = icmp eq ptr %7, null
  br i1 %.not, label %14, label %8

8:                                                ; preds = %5
  %9 = getelementptr inbounds nuw i8, ptr %0, i64 8
  %10 = load ptr, ptr %9, align 8, !tbaa !38
  %11 = load ptr, ptr %10, align 8, !tbaa !9
  %12 = getelementptr inbounds nuw i8, ptr %11, i64 32
  %13 = load ptr, ptr %12, align 8
  invoke void %13(ptr noundef nonnull align 8 dereferenceable(8) %10, ptr noundef nonnull %7)
          to label %14 unwind label %41

14:                                               ; preds = %5, %8, %1
  %15 = getelementptr inbounds nuw i8, ptr %0, i64 72
  %16 = load ptr, ptr %15, align 8, !tbaa !28
  %.not.i.i.i = icmp eq ptr %16, null
  br i1 %.not.i.i.i, label %_ZN20btAlignedObjectArrayI9btVector3ED2Ev.exit, label %17

17:                                               ; preds = %14
  %18 = getelementptr inbounds nuw i8, ptr %0, i64 80
  %19 = load i8, ptr %18, align 8, !tbaa !27, !range !36, !noundef !37
  %20 = trunc nuw i8 %19 to i1
  br i1 %20, label %21, label %_ZN20btAlignedObjectArrayI9btVector3ED2Ev.exit

21:                                               ; preds = %17
  invoke void @_Z21btAlignedFreeInternalPv(ptr noundef nonnull %16)
          to label %_ZN20btAlignedObjectArrayI9btVector3ED2Ev.exit unwind label %22

22:                                               ; preds = %21
  %23 = landingpad { ptr, i32 }
          catch ptr null
  %24 = extractvalue { ptr, i32 } %23, 0
  tail call void @__clang_call_terminate(ptr %24) #21
  unreachable

_ZN20btAlignedObjectArrayI9btVector3ED2Ev.exit:   ; preds = %14, %17, %21
  %25 = getelementptr inbounds nuw i8, ptr %0, i64 60
  %26 = getelementptr inbounds nuw i8, ptr %0, i64 80
  store i8 1, ptr %26, align 8, !tbaa !27
  store ptr null, ptr %15, align 8, !tbaa !28
  store i32 0, ptr %25, align 4, !tbaa !29
  %27 = getelementptr inbounds nuw i8, ptr %0, i64 64
  store i32 0, ptr %27, align 8, !tbaa !30
  %28 = getelementptr inbounds nuw i8, ptr %0, i64 40
  %29 = load ptr, ptr %28, align 8, !tbaa !28
  %.not.i.i.i1 = icmp eq ptr %29, null
  br i1 %.not.i.i.i1, label %_ZN20btAlignedObjectArrayI9btVector3ED2Ev.exit2, label %30

30:                                               ; preds = %_ZN20btAlignedObjectArrayI9btVector3ED2Ev.exit
  %31 = getelementptr inbounds nuw i8, ptr %0, i64 48
  %32 = load i8, ptr %31, align 8, !tbaa !27, !range !36, !noundef !37
  %33 = trunc nuw i8 %32 to i1
  br i1 %33, label %34, label %_ZN20btAlignedObjectArrayI9btVector3ED2Ev.exit2

34:                                               ; preds = %30
  invoke void @_Z21btAlignedFreeInternalPv(ptr noundef nonnull %29)
          to label %_ZN20btAlignedObjectArrayI9btVector3ED2Ev.exit2 unwind label %35

35:                                               ; preds = %34
  %36 = landingpad { ptr, i32 }
          catch ptr null
  %37 = extractvalue { ptr, i32 } %36, 0
  tail call void @__clang_call_terminate(ptr %37) #21
  unreachable

_ZN20btAlignedObjectArrayI9btVector3ED2Ev.exit2:  ; preds = %_ZN20btAlignedObjectArrayI9btVector3ED2Ev.exit, %30, %34
  %38 = getelementptr inbounds nuw i8, ptr %0, i64 28
  %39 = getelementptr inbounds nuw i8, ptr %0, i64 48
  store i8 1, ptr %39, align 8, !tbaa !27
  store ptr null, ptr %28, align 8, !tbaa !28
  store i32 0, ptr %38, align 4, !tbaa !29
  %40 = getelementptr inbounds nuw i8, ptr %0, i64 32
  store i32 0, ptr %40, align 8, !tbaa !30
  tail call void @_ZN30btActivatingCollisionAlgorithmD2Ev(ptr noundef nonnull align 8 dereferenceable(16) %0) #22
  ret void

41:                                               ; preds = %8
  %42 = landingpad { ptr, i32 }
          catch ptr null
  %43 = extractvalue { ptr, i32 } %42, 0
  tail call void @__clang_call_terminate(ptr %43) #21
  unreachable
}